; Function Attrs: mustprogress uwtable
define noundef i32 @_ZN5ezSAT15vec_lt_unsignedERKSt6vectorIiSaIiEES4_(ptr noundef nonnull align 8 dereferenceable(284) %0, ptr noundef nonnull readonly align 8 captures(none) dereferenceable(24) %1, ptr noundef nonnull readonly align 8 captures(none) dereferenceable(24) %2) local_unnamed_addr #0 align 2 {
  %4 = alloca i32, align 4
  %5 = alloca i32, align 4
  %6 = alloca i32, align 4
  %7 = alloca i32, align 4
  call void @llvm.lifetime.start.p0(i64 4, ptr nonnull %4) #30
  call void @llvm.lifetime.start.p0(i64 4, ptr nonnull %5) #30
  call void @llvm.lifetime.start.p0(i64 4, ptr nonnull %6) #30
  call void @llvm.lifetime.start.p0(i64 4, ptr nonnull %7) #30
  call void @_ZN5ezSAT7vec_cmpERKSt6vectorIiSaIiEES4_RiS5_S5_S5_(ptr noundef nonnull align 8 dereferenceable(284) %0, ptr noundef nonnull align 8 dereferenceable(24) %1, ptr noundef nonnull align 8 dereferenceable(24) %2, ptr noundef nonnull align 4 dereferenceable(4) %4, ptr noundef nonnull align 4 dereferenceable(4) %5, ptr noundef nonnull align 4 dereferenceable(4) %6, ptr noundef nonnull align 4 dereferenceable(4) %7)
  %8 = load i32, ptr %4, align 4, !tbaa !78
  call void @llvm.lifetime.end.p0(i64 4, ptr nonnull %7) #30
  call void @llvm.lifetime.end.p0(i64 4, ptr nonnull %6) #30
  call void @llvm.lifetime.end.p0(i64 4, ptr nonnull %5) #30
  call void @llvm.lifetime.end.p0(i64 4, ptr nonnull %4) #30
  ret i32 %8
}